(lp1
(lp2
a(lp3
I1
aI1
aI1
aI1
aI1
aI2
aI2
aI1
aI1
aI3
aI3
aI1
aI1
aI1
aI1
aI1
aI1
aI1
aI4
aI2
aI4
aI1
aI1
aI1
aI1
aI1
aI1
aI1
aI1
aI1
aI1
aI1
aI1
aI1
aI1
aI1
aI1
aI1
aI1
aI1
aI1
aI4
aa(lp4
a(lp5
I1
aI1
aI1
aI1
aI1
aI2
aI2
aI1
aI1
aI3
aI3
aI1
aI1
aI1
aI1
aI1
aI1
aI1
aI4
aI2
aI4
aI1
aI1
aI1
aI1
aI1
aI1
aI1
aI1
aI1
aI1
aI1
aI1
aI1
aI1
aI1
aI1
aI1
aI1
aI1
aI1
aI4
aI1
aa(lp6
a(lp7
I1
aI1
aI1
aI1
aI1
aI2
aI2
aI1
aI1
aI3
aI3
aI1
aI1
aI1
aI1
aI1
aI1
aI1
aI4
aI2
aI4
aI1
aI1
aI1
aI1
aI1
aI1
aI1
aI1
aI1
aI1
aI1
aI1
aI1
aI1
aI1
aI1
aI1
aI1
aI1
aI1
aI4
aa(lp8
a(lp9
I1
aI1
aI1
aI1
aI1
aI2
aI2
aI1
aI1
aI3
aI3
aI1
aI1
aI1
aI1
aI1
aI1
aI1
aI4
aI2
aI4
aI1
aI1
aI1
aI1
aI1
aI1
aI1
aI1
aI1
aI1
aI1
aI1
aI1
aI1
aI1
aI1
aI1
aI1
aI1
aI1
aI4
aa(lp10
a(lp11
I1
aI1
aI1
aI1
aI1
aI2
aI2
aI1
aI1
aI3
aI3
aI1
aI1
aI1
aI1
aI1
aI1
aI1
aI4
aI2
aI4
aI1
aI1
aI1
aI1
aI1
aI1
aI1
aI1
aI1
aI1
aI1
aI1
aI1
aI1
aI1
aI1
aI1
aI1
aI1
aI1
aI4
aa(lp12
a(lp13
I1
aI1
aI1
aI1
aI1
aI2
aI2
aI1
aI1
aI3
aI3
aI1
aI1
aI1
aI1
aI1
aI1
aI1
aI4
aI2
aI4
aI1
aI1
aI1
aI1
aI1
aI1
aI1
aI1
aI1
aI1
aI1
aI1
aI1
aI1
aI1
aI1
aI1
aI1
aI1
aI1
aI4
aa(lp14
a(lp15
I1
aI1
aI1
aI1
aI1
aI2
aI2
aI1
aI1
aI3
aI3
aI1
aI1
aI1
aI1
aI1
aI1
aI1
aI4
aI2
aI4
aI1
aI1
aI1
aI1
aI1
aI1
aI1
aI1
aI1
aI1
aI1
aI1
aI1
aI1
aI1
aI1
aI1
aI1
aI1
aI1
aI4
aa(lp16
I1
aI1
aI1
aI1
aI1
aI2
aI2
aI1
aI1
aI3
aI3
aI1
aI1
aI1
aI1
aI1
aI1
aI1
aI1
aI4
aI2
aI4
aI1
aI1
aI1
aI1
aI1
aI1
aI1
aI1
aI1
aI1
aI1
aI1
aI1
aI1
aI1
aI1
aI1
aI1
aI1
aI1
aI1
aI4
aI2
aa(lp17
I1
aI1
aI1
aI1
aI1
aI2
aI2
aI1
aI1
aI3
aI3
aI1
aI1
aI1
aI1
aI1
aI1
aI1
aI4
aI2
aI4
aI1
aI1
aI1
aI1
aI1
aI1
aI1
aI1
aI1
aI1
aI1
aI1
aI1
aI1
aI1
aI1
aI1
aI1
aI1
aI1
aI1
aI4
aI2
aa(lp18
a(lp19
I1
aI1
aI1
aI1
aI1
aI2
aI2
aI1
aI1
aI3
aI3
aI1
aI1
aI1
aI1
aI1
aI1
aI1
aI4
aI2
aI4
aI1
aI1
aI1
aI1
aI1
aI1
aI1
aI1
aI1
aI1
aI1
aI1
aI1
aI1
aI1
aI1
aI1
aI1
aI1
aI1
aI4
aa(lp20
a(lp21
I1
aI1
aI1
aI1
aI1
aI2
aI2
aI1
aI1
aI3
aI3
aI1
aI1
aI1
aI1
aI1
aI1
aI1
aI4
aI2
aI4
aI1
aI1
aI1
aI1
aI1
aI1
aI1
aI1
aI1
aI1
aI1
aI1
aI1
aI1
aI1
aI1
aI1
aI1
aI1
aI1
aI4
aa(lp22
a(lp23
I1
aI1
aI1
aI1
aI1
aI2
aI2
aI1
aI1
aI3
aI3
aI1
aI1
aI1
aI1
aI1
aI1
aI1
aI1
aI4
aI2
aI4
aI1
aI1
aI1
aI1
aI1
aI1
aI1
aI1
aI1
aI1
aI1
aI1
aI1
aI1
aI1
aI1
aI1
aI1
aI1
aI1
aI4
aa(lp24
I2
aI1
aI1
aI1
aI1
aI3
aI1
aI1
aI1
aI1
aI1
aI1
aI1
aI1
aI1
aI1
aI1
aI3
aI1
aI2
aI2
aI1
aI1
aI1
aI1
aI1
aI2
aI1
aI1
aI4
aI1
aI3
aI1
aI1
aI1
aI1
aI1
aI1
aI1
aI1
aI1
aI2
aI1
aI4
aI1
aI1
aI1
aI1
aI1
aI1
aI1
aI1
aI1
aI1
aI2
aI1
aI1
aI1
aI2
aI1
aI1
aI1
aI1
aI2
aI2
aI1
aI2
aI1
aI1
aI5
aI1
aI1
aI1
aI1
aI1
aI1
aI1
aI3
aI3
aI1
aI2
aI1
aI5
aI1
aI1
aI2
aI1
aI2
aI2
aI1
aI1
aI1
aI1
aI1
aI1
aI2
aI1
aI3
aI1
aI1
aI1
aI1
aI1
aI1
aI1
aI1
aI1
aI1
aI1
aI1
aI1
aI2
aI1
aI1
aI1
aI1
aI1
aI2
aI2
aI1
aI1
aI1
aI1
aI1
aI1
aI1
aI1
aI1
aI1
aI3
aI2
aI2
aI1
aI1
aI1
aI1
aI1
aI1
aI1
aI1
aI1
aI3
aI2
aI1
aI2
aI1
aI1
aI1
aI1
aI1
aI1
aI1
aI1
aI1
aI1
aI1
aI1
aI1
aI1
aI1
aI1
aI1
aI1
aI1
aI1
aI1
aI1
aI1
aI1
aI1
aI3
aI1
aI1
aI1
aI1
aI1
aI2
aI1
aI1
aI1
aI1
aI1
aI1
aI3
aI1
aI1
aI1
aI1
aI1
aI1
aI1
aI2
aI1
aI1
aI1
aI1
aI1
aI1
aI1
aI1
aI1
aI1
aI1
aI1
aI1
aI1
aI1
aI1
aI1
aI1
aI1
aI1
aI1
aI2
aI2
aI1
aI1
aI1
aI1
aI1
aI1
aI1
aI1
aI1
aI1
aI1
aI2
aI1
aI1
aI1
aI2
aI2
aI1
aI1
aI1
aI1
aa(lp25
a(lp26
I1
aI1
aI1
aI1
aI1
aI2
aI2
aI1
aI1
aI3
aI3
aI1
aI1
aI1
aI1
aI1
aI1
aI1
aI4
aI2
aI4
aI1
aI1
aI1
aI1
aI1
aI1
aI1
aI1
aI1
aI1
aI1
aI1
aI1
aI1
aI1
aI1
aI1
aI1
aI1
aI1
aI4
aa(lp27
a(lp28
I1
aI1
aI1
aI1
aI1
aI2
aI2
aI1
aI1
aI3
aI3
aI1
aI1
aI1
aI1
aI1
aI1
aI1
aI4
aI2
aI4
aI1
aI1
aI1
aI1
aI1
aI1
aI1
aI1
aI1
aI1
aI1
aI1
aI1
aI1
aI1
aI1
aI1
aI1
aI1
aI1
aI4
aa(lp29
a(lp30
I1
aI1
aI1
aI1
aI1
aI1
aI2
aI2
aI1
aI1
aI3
aI3
aI1
aI1
aI1
aI1
aI1
aI1
aI1
aI4
aI2
aI4
aI1
aI1
aI1
aI1
aI1
aI1
aI1
aI1
aI1
aI1
aI1
aI1
aI1
aI1
aI1
aI1
aI1
aI1
aI1
aI1
aI1
aI4
aa(lp31
I1
aI1
aI1
aI1
aI1
aI2
aI2
aI1
aI1
aI3
aI3
aI1
aI1
aI1
aI1
aI1
aI1
aI1
aI4
aI2
aI4
aI1
aI1
aI1
aI1
aI1
aI1
aI1
aI1
aI1
aI1
aI1
aI1
aI1
aI1
aI1
aI1
aI1
aI1
aI1
aI1
aI4
aa(lp32
a(lp33
I1
aI1
aI1
aI1
aI1
aI2
aI2
aI1
aI1
aI3
aI3
aI1
aI1
aI1
aI1
aI1
aI1
aI1
aI4
aI2
aI4
aI1
aI1
aI1
aI1
aI1
aI1
aI1
aI1
aI1
aI1
aI1
aI1
aI1
aI1
aI1
aI1
aI1
aI1
aI1
aI1
aI4
aa(lp34
a(lp35
I1
aI1
aI1
aI1
aI1
aI2
aI2
aI1
aI1
aI3
aI3
aI1
aI1
aI1
aI1
aI1
aI1
aI1
aI4
aI2
aI4
aI1
aI1
aI1
aI1
aI1
aI1
aI1
aI1
aI1
aI1
aI1
aI1
aI1
aI1
aI1
aI1
aI1
aI1
aI1
aI4
aa(lp36
I1
aI1
aI1
aI1
aI1
aI2
aI2
aI1
aI1
aI3
aI3
aI1
aI1
aI1
aI1
aI1
aI1
aI1
aI4
aI2
aI4
aI1
aI1
aI1
aI1
aI1
aI1
aI1
aI1
aI1
aI1
aI1
aI1
aI1
aI1
aI1
aI1
aI1
aI1
aI1
aI1
aI1
aI4
aI2
aa(lp37
a(lp38
I1
aI1
aI1
aI1
aI1
aI2
aI2
aI1
aI1
aI3
aI3
aI1
aI1
aI1
aI1
aI1
aI1
aI1
aI4
aI2
aI4
aI1
aI1
aI1
aI1
aI1
aI1
aI1
aI1
aI1
aI1
aI1
aI1
aI1
aI1
aI1
aI1
aI1
aI1
aI1
aI1
aI4
aa(lp39
I1
aI1
aI1
aI1
aI1
aI2
aI2
aI1
aI1
aI3
aI3
aI1
aI1
aI1
aI1
aI1
aI1
aI1
aI4
aI2
aI4
aI1
aI1
aI1
aI1
aI1
aI1
aI1
aI1
aI1
aI1
aI1
aI1
aI1
aI1
aI1
aI1
aI1
aI1
aI1
aI1
aI1
aI4
aI2
aa(lp40
a(lp41
I1
aI1
aI1
aI1
aI1
aI2
aI2
aI1
aI1
aI3
aI3
aI1
aI1
aI1
aI1
aI1
aI1
aI1
aI4
aI2
aI4
aI1
aI1
aI1
aI1
aI1
aI1
aI1
aI1
aI1
aI1
aI1
aI1
aI1
aI1
aI1
aI1
aI1
aI1
aI1
aI1
aI4
aa(lp42
I1
aI1
aI1
aI1
aI1
aI2
aI2
aI1
aI1
aI3
aI3
aI1
aI1
aI1
aI1
aI1
aI1
aI1
aI4
aI2
aI4
aI1
aI1
aI1
aI1
aI1
aI1
aI1
aI1
aI1
aI1
aI1
aI1
aI1
aI1
aI1
aI1
aI1
aI1
aI1
aI1
aI4
aa(lp43
a(lp44
I1
aI1
aI1
aI1
aI1
aI2
aI2
aI1
aI1
aI3
aI3
aI1
aI1
aI1
aI1
aI1
aI1
aI1
aI4
aI2
aI4
aI1
aI1
aI1
aI1
aI1
aI1
aI1
aI1
aI1
aI1
aI1
aI1
aI1
aI1
aI1
aI1
aI1
aI1
aI1
aI1
aI4
aa(lp45
a(lp46
I1
aI1
aI1
aI1
aI1
aI2
aI2
aI1
aI1
aI3
aI3
aI1
aI1
aI1
aI1
aI1
aI1
aI1
aI4
aI2
aI4
aI1
aI1
aI1
aI1
aI1
aI1
aI1
aI1
aI1
aI1
aI1
aI1
aI1
aI1
aI1
aI1
aI1
aI1
aI1
aI1
aI4
aa(lp47
a(lp48
I1
aI1
aI1
aI1
aI1
aI2
aI2
aI1
aI1
aI3
aI3
aI1
aI1
aI1
aI1
aI1
aI1
aI1
aI4
aI2
aI4
aI1
aI1
aI1
aI1
aI1
aI1
aI1
aI1
aI1
aI1
aI1
aI1
aI1
aI1
aI1
aI1
aI1
aI1
aI1
aI1
aI4
aa(lp49
I1
aI1
aI1
aI1
aI1
aI1
aI1
aI1
aI1
aI1
aI1
aI1
aI1
aI4
aI1
aI2
aI1
aI1
aI1
aI1
aI1
aI1
aI1
aI1
aI3
aI1
aI2
aI1
aI1
aI1
aI1
aI1
aI5
aI1
aI1
aI1
aI1
aI1
aI1
aI1
aI1
aI1
aI1
aI1
aI1
aI1
aI1
aI1
aI1
aI1
aI1
aI2
aI2
aI1
aI3
aI1
aI1
aI1
aI1
aI1
aI4
aI1
aI1
aI2
aI1
aI1
aI1
aI2
aI1
aI1
aI1
aI1
aI1
aI1
aI1
aI1
aI4
aI1
aI1
aI1
aI1
aI1
aI8
aI1
aI1
aI1
aI1
aI1
aI2
aI2
aI1
aI1
aa(lp50
a(lp51
I1
aI1
aI1
aI1
aI1
aI2
aI2
aI1
aI1
aI3
aI3
aI1
aI1
aI1
aI1
aI1
aI1
aI1
aI4
aI2
aI4
aI1
aI1
aI1
aI1
aI1
aI1
aI1
aI1
aI1
aI1
aI1
aI1
aI1
aI1
aI1
aI1
aI1
aI1
aI1
aI1
aI1
aI1
aI4
aa(lp52
I1
aI1
aI1
aI1
aI1
aI1
aI1
aI1
aI1
aI1
aI1
aI1
aI3
aI1
aI1
aI1
aI1
aI1
aI1
aI1
aI1
aI2
aI1
aI1
aI1
aI3
aI1
aI1
aI2
aI1
aI1
aI1
aI2
aI1
aI1
aI1
aI2
aI1
aI1
aI1
aI1
aI1
aI1
aI1
aI2
aI1
aI1
aI1
aI1
aI2
aI1
aI1
aI1
aI1
aI1
aI1
aI1
aI1
aI1
aI1
aI1
aI3
aI1
aI1
aI1
aI2
aI1
aI1
aI1
aI1
aI1
aI1
aI1
aI1
aI1
aI1
aI1
aI1
aI1
aI1
aI1
aI1
aI1
aI1
aI1
aI1
aI1
aI3
aI2
aI1
aI1
aI1
aI1
aI1
aI1
aI1
aI2
aI2
aI1
aI2
aI1
aI1
aI1
aI1
aI1
aI2
aI1
aI1
aI1
aI1
aI1
aI2
aI1
aI1
aI1
aI1
aI4
aI1
aI1
aI1
aI1
aI1
aI1
aI2
aI1
aI2
aI2
aI2
aa(lp53
I1
aI1
aI1
aI1
aI1
aI1
aI1
aI1
aI1
aI1
aI1
aI1
aI1
aI4
aI1
aI2
aI1
aI1
aI1
aI1
aI1
aI1
aI1
aI1
aI3
aI1
aI2
aI1
aI1
aI1
aI1
aI1
aI5
aI1
aI1
aI1
aI1
aI1
aI1
aI1
aI1
aI1
aI1
aI1
aI1
aI1
aI1
aI1
aI1
aI1
aI1
aI2
aI2
aI1
aI3
aI1
aI1
aI1
aI1
aI1
aI4
aI1
aI1
aI2
aI1
aI1
aI1
aI2
aI1
aI1
aI1
aI1
aI1
aI1
aI1
aI1
aI4
aI1
aI1
aI1
aI1
aI1
aI8
aI1
aI1
aI1
aI1
aI1
aI2
aI2
aI1
aI1
aa(lp54
a(lp55
I1
aI1
aI1
aI1
aI1
aI2
aI2
aI1
aI1
aI3
aI3
aI1
aI1
aI1
aI1
aI1
aI1
aI1
aI4
aI2
aI4
aI1
aI1
aI1
aI1
aI1
aI1
aI1
aI1
aI1
aI1
aI1
aI1
aI1
aI1
aI1
aI1
aI1
aI1
aI1
aI1
aI4
aa(lp56
a(lp57
I1
aI1
aI1
aI1
aI1
aI2
aI2
aI1
aI1
aI3
aI3
aI1
aI1
aI1
aI1
aI1
aI1
aI1
aI4
aI2
aI4
aI1
aI1
aI1
aI1
aI1
aI1
aI1
aI1
aI1
aI1
aI1
aI1
aI1
aI1
aI1
aI1
aI1
aI1
aI1
aI1
aI4
aa(lp58
a(lp59
I1
aI1
aI1
aI1
aI1
aI2
aI2
aI1
aI1
aI3
aI3
aI1
aI1
aI1
aI1
aI1
aI1
aI1
aI4
aI2
aI4
aI1
aI1
aI1
aI1
aI1
aI1
aI1
aI1
aI1
aI1
aI1
aI1
aI1
aI1
aI1
aI1
aI1
aI1
aI1
aI1
aI4
aa(lp60
a(lp61
I1
aI1
aI1
aI1
aI1
aI2
aI2
aI1
aI1
aI3
aI3
aI1
aI1
aI1
aI1
aI1
aI1
aI1
aI4
aI2
aI4
aI1
aI1
aI1
aI1
aI1
aI1
aI1
aI1
aI1
aI1
aI1
aI1
aI1
aI1
aI1
aI1
aI1
aI1
aI1
aI1
aI4
aa(lp62
a(lp63
I1
aI1
aI1
aI1
aI1
aI2
aI2
aI1
aI1
aI3
aI3
aI1
aI1
aI1
aI1
aI1
aI1
aI1
aI4
aI2
aI4
aI1
aI1
aI1
aI1
aI1
aI1
aI1
aI1
aI1
aI1
aI1
aI1
aI1
aI1
aI1
aI1
aI1
aI1
aI1
aI1
aI4
aa(lp64
a(lp65
I1
aI1
aI1
aI1
aI1
aI2
aI2
aI1
aI1
aI3
aI3
aI1
aI1
aI1
aI1
aI1
aI1
aI1
aI4
aI2
aI4
aI1
aI1
aI1
aI1
aI1
aI1
aI1
aI1
aI1
aI1
aI1
aI1
aI1
aI1
aI1
aI1
aI1
aI1
aI1
aI1
aI4
aa.